target datalayout = "e-m:e-p270:32:32-p271:32:32-p272:64:64-i64:64-i128:128-f80:128-n8:16:32:64-S128"
target triple = "x86_64-pc-linux-gnu"

%struct.pot_derivatives_t = type { float, float, float, float }

; Function Attrs: mustprogress nounwind uwtable
define linkonce_odr noundef float @_ZSt4erfcf(float noundef %0) #2 comdat {
  %2 = alloca float, align 4
  store float %0, ptr %2, align 4, !tbaa !44
  %3 = load float, ptr %2, align 4, !tbaa !44
  %4 = call float @erfcf(float noundef %3) #5, !tbaa !57
  ret float %4
}

; Function Attrs: inlinehint mustprogress nounwind uwtable
define linkonce_odr noundef float @_ZSt4sqrtf(float noundef %0) #4 comdat {
  %2 = alloca float, align 4
  store float %0, ptr %2, align 4, !tbaa !44
  %3 = load float, ptr %2, align 4, !tbaa !44
  %4 = call float @sqrtf(float noundef %3) #5, !tbaa !57
  ret float %4
}

; Function Attrs: inlinehint mustprogress nounwind uwtable
define linkonce_odr noundef float @_ZSt3expf(float noundef %0) #4 comdat {
  %2 = alloca float, align 4
  store float %0, ptr %2, align 4, !tbaa !44
  %3 = load float, ptr %2, align 4, !tbaa !44
  %4 = call float @expf(float noundef %3) #5, !tbaa !57
  ret float %4
}

; Function Attrs: mustprogress nounwind uwtable
define internal void @_ZL11approx_2dofffPfS_(float noundef %0, float noundef %1, ptr noundef %2, ptr noundef %3) #2 {
  %5 = alloca float, align 4
  %6 = alloca float, align 4
  %7 = alloca ptr, align 8
  %8 = alloca ptr, align 8
  %9 = alloca float, align 4
  %10 = alloca float, align 4
  store float %0, ptr %5, align 4, !tbaa !44
  store float %1, ptr %6, align 4, !tbaa !44
  store ptr %2, ptr %7, align 8, !tbaa !48
  store ptr %3, ptr %8, align 8, !tbaa !48
  call void @llvm.lifetime.start.p0(i64 4, ptr %9) #5
  call void @llvm.lifetime.start.p0(i64 4, ptr %10) #5
  %11 = load float, ptr %6, align 4, !tbaa !44
  %12 = fneg float %11
  %13 = load float, ptr %6, align 4, !tbaa !44
  %14 = fmul float %12, %13
  %15 = load float, ptr %5, align 4, !tbaa !44
  %16 = fmul float 2.000000e+00, %15
  %17 = fdiv float %14, %16
  %18 = call noundef float @_ZSt3expf(float noundef %17)
  store float %18, ptr %9, align 4, !tbaa !44
  %19 = load float, ptr %6, align 4, !tbaa !44
  %20 = load float, ptr %5, align 4, !tbaa !44
  %21 = fmul float 2.000000e+00, %20
  %22 = call noundef float @_ZSt4sqrtf(float noundef %21)
  %23 = fdiv float %19, %22
  %24 = call noundef float @_ZSt4erfcf(float noundef %23)
  store float %24, ptr %10, align 4, !tbaa !44
  %25 = load float, ptr %6, align 4, !tbaa !44
  %26 = fneg float %25
  %27 = fpext float %26 to double
  %28 = load float, ptr %5, align 4, !tbaa !44
  %29 = fmul float 2.000000e+00, %28
  %30 = fpext float %29 to double
  %31 = fdiv double %30, 0x400921FB54442D18
  %32 = call double @sqrt(double noundef %31) #5, !tbaa !57
  %33 = load float, ptr %9, align 4, !tbaa !44
  %34 = fpext float %33 to double
  %35 = fmul double %32, %34
  %36 = load float, ptr %10, align 4, !tbaa !44
  %37 = fpext float %36 to double
  %38 = fdiv double %35, %37
  %39 = fadd double %27, %38
  %40 = fptrunc double %39 to float
  %41 = load ptr, ptr %7, align 8, !tbaa !48
  store float %40, ptr %41, align 4, !tbaa !44
  %42 = load float, ptr %9, align 4, !tbaa !44
  %43 = load float, ptr %9, align 4, !tbaa !44
  %44 = fmul float %42, %43
  %45 = fpext float %44 to double
  %46 = load float, ptr %10, align 4, !tbaa !44
  %47 = fpext float %46 to double
  %48 = fmul double 0x400921FB54442D18, %47
  %49 = load float, ptr %10, align 4, !tbaa !44
  %50 = fpext float %49 to double
  %51 = fmul double %48, %50
  %52 = fdiv double %45, %51
  %53 = call double @exp(double noundef %52) #5, !tbaa !57
  %54 = fmul double 0x3FF921FB54442D18, %53
  %55 = load float, ptr %10, align 4, !tbaa !44
  %56 = fpext float %55 to double
  %57 = fmul double %54, %56
  %58 = fptrunc double %57 to float
  %59 = load ptr, ptr %8, align 8, !tbaa !48
  store float %58, ptr %59, align 4, !tbaa !44
  call void @llvm.lifetime.end.p0(i64 4, ptr %10) #5
  call void @llvm.lifetime.end.p0(i64 4, ptr %9) #5
  ret void
}

; Function Attrs: mustprogress uwtable
define internal noundef float @_ZL19energyDriftAtomPairbbffffPK17pot_derivatives_t(i1 noundef zeroext %0, i1 noundef zeroext %1, float noundef %2, float noundef %3, float noundef %4, float noundef %5, ptr noundef %6) #3 {
  %8 = alloca i8, align 1
  %9 = alloca i8, align 1
  %10 = alloca float, align 4
  %11 = alloca float, align 4
  %12 = alloca float, align 4
  %13 = alloca float, align 4
  %14 = alloca ptr, align 8
  %15 = alloca float, align 4
  %16 = alloca float, align 4
  %17 = alloca float, align 4
  %18 = alloca float, align 4
  %19 = alloca float, align 4
  %20 = alloca float, align 4
  %21 = alloca float, align 4
  %22 = alloca float, align 4
  %23 = alloca float, align 4
  %24 = alloca float, align 4
  %25 = alloca float, align 4
  %26 = alloca float, align 4
  %27 = alloca float, align 4
  %28 = alloca float, align 4
  %29 = alloca float, align 4
  %30 = zext i1 %0 to i8
  store i8 %30, ptr %8, align 1, !tbaa !113
  %31 = zext i1 %1 to i8
  store i8 %31, ptr %9, align 1, !tbaa !113
  store float %2, ptr %10, align 4, !tbaa !44
  store float %3, ptr %11, align 4, !tbaa !44
  store float %4, ptr %12, align 4, !tbaa !44
  store float %5, ptr %13, align 4, !tbaa !44
  store ptr %6, ptr %14, align 8, !tbaa !350
  call void @llvm.lifetime.start.p0(i64 4, ptr %15) #5
  store float 8.000000e+00, ptr %15, align 4, !tbaa !44
  call void @llvm.lifetime.start.p0(i64 4, ptr %16) #5
  %32 = load float, ptr %13, align 4, !tbaa !44
  store float %32, ptr %16, align 4, !tbaa !44
  call void @llvm.lifetime.start.p0(i64 4, ptr %17) #5
  store float 1.000000e+00, ptr %17, align 4, !tbaa !44
  call void @llvm.lifetime.start.p0(i64 4, ptr %18) #5
  call void @llvm.lifetime.start.p0(i64 4, ptr %19) #5
  %33 = load float, ptr %16, align 4, !tbaa !44
  %34 = load float, ptr %16, align 4, !tbaa !44
  %35 = fmul float %33, %34
  %36 = load float, ptr %10, align 4, !tbaa !44
  %37 = fmul float 2.000000e+00, %36
  %38 = fmul float %37, 8.000000e+00
  %39 = fmul float %38, 8.000000e+00
  %40 = fcmp ogt float %35, %39
  br i1 %40, label %41, label %42

41:                                               ; preds = %7
  store float 0.000000e+00, ptr %18, align 4, !tbaa !44
  store float 0.000000e+00, ptr %19, align 4, !tbaa !44
  br label %96

42:                                               ; preds = %7
  %43 = load i8, ptr %8, align 1, !tbaa !113, !range !230, !noundef !231
  %44 = trunc i8 %43 to i1
  br i1 %44, label %45, label %58

45:                                               ; preds = %42
  call void @llvm.lifetime.start.p0(i64 4, ptr %20) #5
  call void @llvm.lifetime.start.p0(i64 4, ptr %21) #5
  %46 = load float, ptr %11, align 4, !tbaa !44
  %47 = load float, ptr %13, align 4, !tbaa !44
  %48 = load float, ptr %11, align 4, !tbaa !44
  %49 = fmul float %47, %48
  %50 = load float, ptr %10, align 4, !tbaa !44
  %51 = fdiv float %49, %50
  call void @_ZL11approx_2dofffPfS_(float noundef %46, float noundef %51, ptr noundef %20, ptr noundef %21)
  %52 = load float, ptr %20, align 4, !tbaa !44
  %53 = load float, ptr %16, align 4, !tbaa !44
  %54 = fadd float %53, %52
  store float %54, ptr %16, align 4, !tbaa !44
  %55 = load float, ptr %21, align 4, !tbaa !44
  %56 = load float, ptr %17, align 4, !tbaa !44
  %57 = fmul float %56, %55
  store float %57, ptr %17, align 4, !tbaa !44
  call void @llvm.lifetime.end.p0(i64 4, ptr %21) #5
  call void @llvm.lifetime.end.p0(i64 4, ptr %20) #5
  br label %58

58:                                               ; preds = %45, %42
  %59 = load i8, ptr %9, align 1, !tbaa !113, !range !230, !noundef !231
  %60 = trunc i8 %59 to i1
  br i1 %60, label %61, label %74

61:                                               ; preds = %58
  call void @llvm.lifetime.start.p0(i64 4, ptr %22) #5
  call void @llvm.lifetime.start.p0(i64 4, ptr %23) #5
  %62 = load float, ptr %12, align 4, !tbaa !44
  %63 = load float, ptr %13, align 4, !tbaa !44
  %64 = load float, ptr %12, align 4, !tbaa !44
  %65 = fmul float %63, %64
  %66 = load float, ptr %10, align 4, !tbaa !44
  %67 = fdiv float %65, %66
  call void @_ZL11approx_2dofffPfS_(float noundef %62, float noundef %67, ptr noundef %22, ptr noundef %23)
  %68 = load float, ptr %22, align 4, !tbaa !44
  %69 = load float, ptr %16, align 4, !tbaa !44
  %70 = fadd float %69, %68
  store float %70, ptr %16, align 4, !tbaa !44
  %71 = load float, ptr %23, align 4, !tbaa !44
  %72 = load float, ptr %17, align 4, !tbaa !44
  %73 = fmul float %72, %71
  store float %73, ptr %17, align 4, !tbaa !44
  call void @llvm.lifetime.end.p0(i64 4, ptr %23) #5
  call void @llvm.lifetime.end.p0(i64 4, ptr %22) #5
  br label %74

74:                                               ; preds = %61, %58
  %75 = load float, ptr %16, align 4, !tbaa !44
  %76 = fneg float %75
  %77 = load float, ptr %16, align 4, !tbaa !44
  %78 = fmul float %76, %77
  %79 = load float, ptr %10, align 4, !tbaa !44
  %80 = fmul float 2.000000e+00, %79
  %81 = fdiv float %78, %80
  %82 = call noundef float @_ZSt3expf(float noundef %81)
  %83 = fpext float %82 to double
  %84 = call double @sqrt(double noundef 0x401921FB54442D18) #5, !tbaa !57
  %85 = fdiv double %83, %84
  %86 = fptrunc double %85 to float
  store float %86, ptr %18, align 4, !tbaa !44
  %87 = load float, ptr %16, align 4, !tbaa !44
  %88 = load float, ptr %10, align 4, !tbaa !44
  %89 = fmul float 2.000000e+00, %88
  %90 = call noundef float @_ZSt4sqrtf(float noundef %89)
  %91 = fdiv float %87, %90
  %92 = call noundef float @_ZSt4erfcf(float noundef %91)
  %93 = fpext float %92 to double
  %94 = fmul double 5.000000e-01, %93
  %95 = fptrunc double %94 to float
  store float %95, ptr %19, align 4, !tbaa !44
  br label %96

96:                                               ; preds = %74, %41
  call void @llvm.lifetime.start.p0(i64 4, ptr %24) #5
  %97 = load float, ptr %10, align 4, !tbaa !44
  %98 = call noundef float @_ZSt4sqrtf(float noundef %97)
  store float %98, ptr %24, align 4, !tbaa !44
  call void @llvm.lifetime.start.p0(i64 4, ptr %25) #5
  %99 = load float, ptr %16, align 4, !tbaa !44
  %100 = load float, ptr %16, align 4, !tbaa !44
  %101 = fmul float %99, %100
  store float %101, ptr %25, align 4, !tbaa !44
  call void @llvm.lifetime.start.p0(i64 4, ptr %26) #5
  %102 = load float, ptr %17, align 4, !tbaa !44
  %103 = load ptr, ptr %14, align 8, !tbaa !350
  %104 = getelementptr inbounds nuw %struct.pot_derivatives_t, ptr %103, i32 0, i32 0
  %105 = load float, ptr %104, align 4, !tbaa !370
  %106 = fmul float %102, %105
  %107 = load float, ptr %24, align 4, !tbaa !44
  %108 = load float, ptr %18, align 4, !tbaa !44
  %109 = load float, ptr %16, align 4, !tbaa !44
  %110 = load float, ptr %19, align 4, !tbaa !44
  %111 = fmul float %109, %110
  %112 = fneg float %111
  %113 = call float @llvm.fmuladd.f32(float %107, float %108, float %112)
  %114 = fmul float %106, %113
  store float %114, ptr %26, align 4, !tbaa !44
  call void @llvm.lifetime.start.p0(i64 4, ptr %27) #5
  %115 = load float, ptr %17, align 4, !tbaa !44
  %116 = load ptr, ptr %14, align 8, !tbaa !350
  %117 = getelementptr inbounds nuw %struct.pot_derivatives_t, ptr %116, i32 0, i32 1
  %118 = load float, ptr %117, align 4, !tbaa !286
  %119 = fmul float %115, %118
  %120 = fdiv float %119, 2.000000e+00
  %121 = load float, ptr %25, align 4, !tbaa !44
  %122 = load float, ptr %10, align 4, !tbaa !44
  %123 = fadd float %121, %122
  %124 = load float, ptr %19, align 4, !tbaa !44
  %125 = load float, ptr %16, align 4, !tbaa !44
  %126 = load float, ptr %24, align 4, !tbaa !44
  %127 = fmul float %125, %126
  %128 = load float, ptr %18, align 4, !tbaa !44
  %129 = fmul float %127, %128
  %130 = fneg float %129
  %131 = call float @llvm.fmuladd.f32(float %123, float %124, float %130)
  %132 = fmul float %120, %131
  store float %132, ptr %27, align 4, !tbaa !44
  call void @llvm.lifetime.start.p0(i64 4, ptr %28) #5
  %133 = load float, ptr %17, align 4, !tbaa !44
  %134 = load ptr, ptr %14, align 8, !tbaa !350
  %135 = getelementptr inbounds nuw %struct.pot_derivatives_t, ptr %134, i32 0, i32 2
  %136 = load float, ptr %135, align 4, !tbaa !288
  %137 = fmul float %133, %136
  %138 = fdiv float %137, 6.000000e+00
  %139 = load float, ptr %24, align 4, !tbaa !44
  %140 = load float, ptr %25, align 4, !tbaa !44
  %141 = load float, ptr %10, align 4, !tbaa !44
  %142 = call float @llvm.fmuladd.f32(float 2.000000e+00, float %141, float %140)
  %143 = fmul float %139, %142
  %144 = load float, ptr %18, align 4, !tbaa !44
  %145 = load float, ptr %16, align 4, !tbaa !44
  %146 = load float, ptr %25, align 4, !tbaa !44
  %147 = load float, ptr %10, align 4, !tbaa !44
  %148 = call float @llvm.fmuladd.f32(float 3.000000e+00, float %147, float %146)
  %149 = fmul float %145, %148
  %150 = load float, ptr %19, align 4, !tbaa !44
  %151 = fmul float %149, %150
  %152 = fneg float %151
  %153 = call float @llvm.fmuladd.f32(float %143, float %144, float %152)
  %154 = fmul float %138, %153
  store float %154, ptr %28, align 4, !tbaa !44
  call void @llvm.lifetime.start.p0(i64 4, ptr %29) #5
  %155 = load float, ptr %17, align 4, !tbaa !44
  %156 = load ptr, ptr %14, align 8, !tbaa !350
  %157 = getelementptr inbounds nuw %struct.pot_derivatives_t, ptr %156, i32 0, i32 3
  %158 = load float, ptr %157, align 4, !tbaa !289
  %159 = fmul float %155, %158
  %160 = fdiv float %159, 2.400000e+01
  %161 = load float, ptr %25, align 4, !tbaa !44
  %162 = load float, ptr %25, align 4, !tbaa !44
  %163 = load float, ptr %25, align 4, !tbaa !44
  %164 = fmul float 6.000000e+00, %163
  %165 = load float, ptr %10, align 4, !tbaa !44
  %166 = fmul float %164, %165
  %167 = call float @llvm.fmuladd.f32(float %161, float %162, float %166)
  %168 = load float, ptr %10, align 4, !tbaa !44
  %169 = fmul float 3.000000e+00, %168
  %170 = load float, ptr %10, align 4, !tbaa !44
  %171 = call float @llvm.fmuladd.f32(float %169, float %170, float %167)
  %172 = load float, ptr %19, align 4, !tbaa !44
  %173 = load float, ptr %16, align 4, !tbaa !44
  %174 = load float, ptr %24, align 4, !tbaa !44
  %175 = fmul float %173, %174
  %176 = load float, ptr %25, align 4, !tbaa !44
  %177 = load float, ptr %10, align 4, !tbaa !44
  %178 = call float @llvm.fmuladd.f32(float 5.000000e+00, float %177, float %176)
  %179 = fmul float %175, %178
  %180 = load float, ptr %18, align 4, !tbaa !44
  %181 = fmul float %179, %180
  %182 = fneg float %181
  %183 = call float @llvm.fmuladd.f32(float %171, float %172, float %182)
  %184 = fmul float %160, %183
  store float %184, ptr %29, align 4, !tbaa !44
  %185 = load float, ptr %26, align 4, !tbaa !44
  %186 = load float, ptr %27, align 4, !tbaa !44
  %187 = fadd float %185, %186
  %188 = load float, ptr %28, align 4, !tbaa !44
  %189 = fadd float %187, %188
  %190 = load float, ptr %29, align 4, !tbaa !44
  %191 = fadd float %189, %190
  call void @llvm.lifetime.end.p0(i64 4, ptr %29) #5
  call void @llvm.lifetime.end.p0(i64 4, ptr %28) #5
  call void @llvm.lifetime.end.p0(i64 4, ptr %27) #5
  call void @llvm.lifetime.end.p0(i64 4, ptr %26) #5
  call void @llvm.lifetime.end.p0(i64 4, ptr %25) #5
  call void @llvm.lifetime.end.p0(i64 4, ptr %24) #5
  call void @llvm.lifetime.end.p0(i64 4, ptr %19) #5
  call void @llvm.lifetime.end.p0(i64 4, ptr %18) #5
  call void @llvm.lifetime.end.p0(i64 4, ptr %17) #5
  call void @llvm.lifetime.end.p0(i64 4, ptr %16) #5
  call void @llvm.lifetime.end.p0(i64 4, ptr %15) #5
  ret float %191
}