; Function Attrs: mustprogress nounwind uwtable
define internal fastcc noundef float @_ZL19energyDriftAtomPairbbffffPK17pot_derivatives_t(i1 noundef zeroext %0, i1 noundef zeroext %1, float noundef %2, float noundef %3, float noundef %4, float noundef %5, ptr noundef nonnull readonly captures(none) %6) unnamed_addr #18 {
  %8 = fmul float %5, %5
  %9 = fmul float %2, 2.000000e+00
  %10 = fmul float %9, 8.000000e+00
  %11 = fmul float %10, 8.000000e+00
  %12 = fcmp ogt float %8, %11
  br i1 %12, label %90, label %13

13:                                               ; preds = %7
  br i1 %0, label %14, label %45

14:                                               ; preds = %13
  %15 = fmul float %3, %5
  %16 = fdiv float %15, %2
  %17 = fneg float %16
  %18 = fmul float %16, %17
  %19 = fmul float %3, 2.000000e+00
  %20 = fdiv float %18, %19
  %21 = tail call noundef float @expf(float noundef %20) #27, !tbaa !26
  %22 = tail call noundef float @sqrtf(float noundef %19) #27, !tbaa !26
  %23 = fdiv float %16, %22
  %24 = tail call noundef float @erfcf(float noundef %23) #27, !tbaa !26
  %25 = fpext float %17 to double
  %26 = fpext float %19 to double
  %27 = fdiv double %26, 0x400921FB54442D18
  %28 = tail call double @sqrt(double noundef %27) #27, !tbaa !26
  %29 = fpext float %21 to double
  %30 = fmul double %28, %29
  %31 = fpext float %24 to double
  %32 = fdiv double %30, %31
  %33 = fadd double %32, %25
  %34 = fptrunc double %33 to float
  %35 = fmul float %21, %21
  %36 = fpext float %35 to double
  %37 = fmul double %31, 0x400921FB54442D18
  %38 = fmul double %37, %31
  %39 = fdiv double %36, %38
  %40 = tail call double @exp(double noundef %39) #27, !tbaa !26
  %41 = fmul double %40, 0x3FF921FB54442D18
  %42 = fmul double %41, %31
  %43 = fptrunc double %42 to float
  %44 = fadd float %5, %34
  br label %45

45:                                               ; preds = %14, %13
  %.168 = phi float [ %43, %14 ], [ 1.000000e+00, %13 ]
  %.1 = phi float [ %44, %14 ], [ %5, %13 ]
  br i1 %1, label %46, label %78

46:                                               ; preds = %45
  %47 = fmul float %4, %5
  %48 = fdiv float %47, %2
  %49 = fneg float %48
  %50 = fmul float %48, %49
  %51 = fmul float %4, 2.000000e+00
  %52 = fdiv float %50, %51
  %53 = tail call noundef float @expf(float noundef %52) #27, !tbaa !26
  %54 = tail call noundef float @sqrtf(float noundef %51) #27, !tbaa !26
  %55 = fdiv float %48, %54
  %56 = tail call noundef float @erfcf(float noundef %55) #27, !tbaa !26
  %57 = fpext float %49 to double
  %58 = fpext float %51 to double
  %59 = fdiv double %58, 0x400921FB54442D18
  %60 = tail call double @sqrt(double noundef %59) #27, !tbaa !26
  %61 = fpext float %53 to double
  %62 = fmul double %60, %61
  %63 = fpext float %56 to double
  %64 = fdiv double %62, %63
  %65 = fadd double %64, %57
  %66 = fptrunc double %65 to float
  %67 = fmul float %53, %53
  %68 = fpext float %67 to double
  %69 = fmul double %63, 0x400921FB54442D18
  %70 = fmul double %69, %63
  %71 = fdiv double %68, %70
  %72 = tail call double @exp(double noundef %71) #27, !tbaa !26
  %73 = fmul double %72, 0x3FF921FB54442D18
  %74 = fmul double %73, %63
  %75 = fptrunc double %74 to float
  %76 = fadd float %.1, %66
  %77 = fmul float %.168, %75
  br label %78

78:                                               ; preds = %46, %45
  %.269 = phi float [ %77, %46 ], [ %.168, %45 ]
  %.2 = phi float [ %76, %46 ], [ %.1, %45 ]
  %79 = fneg float %.2
  %80 = fmul float %.2, %79
  %81 = fdiv float %80, %9
  %82 = tail call noundef float @expf(float noundef %81) #27, !tbaa !26
  %83 = fpext float %82 to double
  %84 = fdiv double %83, 0x40040D931FF62705
  %85 = fptrunc double %84 to float
  %86 = tail call noundef float @sqrtf(float noundef %9) #27, !tbaa !26
  %87 = fdiv float %.2, %86
  %88 = tail call noundef float @erfcf(float noundef %87) #27, !tbaa !26
  %89 = fmul float %88, 5.000000e-01
  %.pre = fmul float %.2, %.2
  br label %90

90:                                               ; preds = %7, %78
  %.pre-phi = phi float [ %8, %7 ], [ %.pre, %78 ]
  %.071 = phi float [ 0.000000e+00, %7 ], [ %89, %78 ]
  %.070 = phi float [ 0.000000e+00, %7 ], [ %85, %78 ]
  %.067 = phi float [ 1.000000e+00, %7 ], [ %.269, %78 ]
  %.0 = phi float [ %5, %7 ], [ %.2, %78 ]
  %91 = tail call noundef float @sqrtf(float noundef %2) #27, !tbaa !26
  %92 = load float, ptr %6, align 4, !tbaa !295
  %93 = fmul float %.067, %92
  %94 = fneg float %.071
  %95 = fmul float %.0, %94
  %96 = tail call float @llvm.fmuladd.f32(float %91, float %.070, float %95)
  %97 = fmul float %96, %93
  %98 = getelementptr inbounds nuw i8, ptr %6, i64 4
  %99 = load float, ptr %98, align 4, !tbaa !194
  %100 = fmul float %.067, %99
  %101 = fmul float %100, 5.000000e-01
  %102 = fadd float %2, %.pre-phi
  %103 = fmul float %.0, %91
  %104 = fneg float %.070
  %105 = fmul float %103, %104
  %106 = tail call float @llvm.fmuladd.f32(float %102, float %.071, float %105)
  %107 = fmul float %106, %101
  %108 = getelementptr inbounds nuw i8, ptr %6, i64 8
  %109 = load float, ptr %108, align 4, !tbaa !196
  %110 = fmul float %.067, %109
  %111 = fdiv float %110, 6.000000e+00
  %112 = tail call float @llvm.fmuladd.f32(float %2, float 2.000000e+00, float %.pre-phi)
  %113 = fmul float %91, %112
  %114 = tail call float @llvm.fmuladd.f32(float %2, float 3.000000e+00, float %.pre-phi)
  %115 = fmul float %.0, %114
  %116 = fmul float %115, %94
  %117 = tail call float @llvm.fmuladd.f32(float %113, float %.070, float %116)
  %118 = fmul float %117, %111
  %119 = getelementptr inbounds nuw i8, ptr %6, i64 12
  %120 = load float, ptr %119, align 4, !tbaa !197
  %121 = fmul float %.067, %120
  %122 = fdiv float %121, 2.400000e+01
  %123 = fmul float %.pre-phi, 6.000000e+00
  %124 = fmul float %2, %123
  %125 = tail call float @llvm.fmuladd.f32(float %.pre-phi, float %.pre-phi, float %124)
  %126 = fmul float %2, 3.000000e+00
  %127 = tail call float @llvm.fmuladd.f32(float %126, float %2, float %125)
  %128 = tail call float @llvm.fmuladd.f32(float %2, float 5.000000e+00, float %.pre-phi)
  %129 = fmul float %103, %128
  %130 = fmul float %129, %104
  %131 = tail call float @llvm.fmuladd.f32(float %127, float %.071, float %130)
  %132 = fmul float %131, %122
  %133 = fadd float %97, %107
  %134 = fadd float %133, %118
  %135 = fadd float %134, %132
  ret float %135
}